target datalayout = "e-m:e-p270:32:32-p271:32:32-p272:64:64-i64:64-i128:128-f80:128-n8:16:32:64-S128"
target triple = "x86_64-pc-linux-gnu"

%struct.H5VL_file_specific_args_t = type { i32, %union.anon.14 }
%union.anon.14 = type { %struct.anon.17 }
%struct.anon.17 = type { ptr, i64, ptr }
%struct.anon.16 = type { ptr }

@H5_libterm_g = external global i8, align 1
@.str = private unnamed_addr constant [97 x i8] c"generated/home/dtcxzyw/WorkSpace/Projects/compilers/llvm-opt-benchmark/bench/hdf5/hdf5/src/H5F.c\00", align 1
@H5E_CANTINIT_g = external global i64, align 8
@H5F_init_g = external global i8, align 1
@H5E_ARGS_g = external global i64, align 8
@H5E_BADTYPE_g = external global i64, align 8
@.str.4 = private unnamed_addr constant [24 x i8] c"invalid file identifier\00", align 1
@H5P_LST_DATASET_XFER_ID_g = external global i64, align 8
@H5E_FILE_g = external global i64, align 8
@H5E_CANTREGISTER_g = external global i64, align 8
@.str.123 = private unnamed_addr constant [31 x i8] c"unable to register file handle\00", align 1
@__func__.H5F__reopen_api_common = private unnamed_addr constant [23 x i8] c"H5F__reopen_api_common\00", align 1
@.str.131 = private unnamed_addr constant [44 x i8] c"unable to reopen file via the VOL connector\00", align 1
@.str.132 = private unnamed_addr constant [22 x i8] c"unable to reopen file\00", align 1

; Function Attrs: nounwind uwtable
define internal i64 @H5F__reopen_api_common(i64 noundef %0, ptr noundef %1) #0 {
  %3 = alloca i64, align 8
  %4 = alloca ptr, align 8
  %5 = alloca ptr, align 8
  %6 = alloca %struct.H5VL_file_specific_args_t, align 8
  %7 = alloca ptr, align 8
  %8 = alloca i64, align 8
  %9 = alloca i8, align 1
  store i64 %0, ptr %3, align 8, !tbaa !3
  store ptr %1, ptr %4, align 8, !tbaa !22
  call void @llvm.lifetime.start.p0(i64 8, ptr %5) #5
  store ptr null, ptr %5, align 8, !tbaa !11
  call void @llvm.lifetime.start.p0(i64 32, ptr %6) #5
  call void @llvm.lifetime.start.p0(i64 8, ptr %7) #5
  store ptr null, ptr %7, align 8, !tbaa !22
  call void @llvm.lifetime.start.p0(i64 8, ptr %8) #5
  store i64 -1, ptr %8, align 8, !tbaa !3
  call void @llvm.lifetime.start.p0(i64 1, ptr %9) #5
  store i8 0, ptr %9, align 1, !tbaa !7
  %10 = load i8, ptr @H5F_init_g, align 1, !tbaa !7, !range !9, !noundef !10
  %11 = trunc i8 %10 to i1
  br i1 %11, label %16, label %12

12:                                               ; preds = %2
  %13 = load i8, ptr @H5_libterm_g, align 1, !tbaa !7, !range !9, !noundef !10
  %14 = trunc i8 %13 to i1
  %15 = xor i1 %14, true
  br label %16

16:                                               ; preds = %12, %2
  %17 = phi i1 [ true, %2 ], [ %15, %12 ]
  %18 = xor i1 %17, true
  %19 = xor i1 %18, true
  %20 = zext i1 %19 to i32
  %21 = sext i32 %20 to i64
  %22 = call i64 @llvm.expect.i64(i64 %21, i64 1)
  %23 = icmp ne i64 %22, 0
  br i1 %23, label %24, label %124

24:                                               ; preds = %16
  %25 = load i64, ptr %3, align 8, !tbaa !3
  %26 = call ptr @H5VL_vol_object_verify(i64 noundef %25, i32 noundef 1)
  store ptr %26, ptr %5, align 8, !tbaa !11
  %27 = icmp eq ptr null, %26
  br i1 %27, label %28, label %47

28:                                               ; preds = %24
  br label %29

29:                                               ; preds = %28
  br label %30

30:                                               ; preds = %29
  br label %31

31:                                               ; preds = %30
  %32 = load i64, ptr @H5E_ARGS_g, align 8, !tbaa !3
  %33 = load i64, ptr @H5E_BADTYPE_g, align 8, !tbaa !3
  %34 = call i32 (ptr, ptr, i32, i64, i64, ptr, ...) @H5E_printf_stack(ptr noundef @.str, ptr noundef @__func__.H5F__reopen_api_common, i32 noundef 1402, i64 noundef %32, i64 noundef %33, ptr noundef @.str.4)
  br label %35

35:                                               ; preds = %31
  br label %36

36:                                               ; preds = %35
  store i8 1, ptr %9, align 1, !tbaa !7
  %37 = load i8, ptr %9, align 1, !tbaa !7, !range !9, !noundef !10
  %38 = trunc i8 %37 to i1
  %39 = zext i1 %38 to i8
  store i8 %39, ptr %9, align 1, !tbaa !7
  br label %40

40:                                               ; preds = %36
  br label %41

41:                                               ; preds = %40
  br label %42

42:                                               ; preds = %41
  store i64 -1, ptr %8, align 8, !tbaa !3
  br label %123

43:                                               ; No predecessors!
  br label %44

44:                                               ; preds = %43
  br label %45

45:                                               ; preds = %44
  br label %46

46:                                               ; preds = %45
  br label %47

47:                                               ; preds = %46, %24
  %48 = getelementptr inbounds nuw %struct.H5VL_file_specific_args_t, ptr %6, i32 0, i32 0
  store i32 1, ptr %48, align 8, !tbaa !34
  %49 = getelementptr inbounds nuw %struct.H5VL_file_specific_args_t, ptr %6, i32 0, i32 1
  %50 = getelementptr inbounds nuw %struct.anon.16, ptr %49, i32 0, i32 0
  store ptr %7, ptr %50, align 8, !tbaa !17
  %51 = load ptr, ptr %5, align 8, !tbaa !11
  %52 = load i64, ptr @H5P_LST_DATASET_XFER_ID_g, align 8, !tbaa !3
  %53 = load ptr, ptr %4, align 8, !tbaa !22
  %54 = call i32 @H5VL_file_specific(ptr noundef %51, ptr noundef %6, i64 noundef %52, ptr noundef %53)
  %55 = icmp slt i32 %54, 0
  br i1 %55, label %56, label %75

56:                                               ; preds = %47
  br label %57

57:                                               ; preds = %56
  br label %58

58:                                               ; preds = %57
  br label %59

59:                                               ; preds = %58
  %60 = load i64, ptr @H5E_FILE_g, align 8, !tbaa !3
  %61 = load i64, ptr @H5E_CANTINIT_g, align 8, !tbaa !3
  %62 = call i32 (ptr, ptr, i32, i64, i64, ptr, ...) @H5E_printf_stack(ptr noundef @.str, ptr noundef @__func__.H5F__reopen_api_common, i32 noundef 1410, i64 noundef %60, i64 noundef %61, ptr noundef @.str.131)
  br label %63

63:                                               ; preds = %59
  br label %64

64:                                               ; preds = %63
  store i8 1, ptr %9, align 1, !tbaa !7
  %65 = load i8, ptr %9, align 1, !tbaa !7, !range !9, !noundef !10
  %66 = trunc i8 %65 to i1
  %67 = zext i1 %66 to i8
  store i8 %67, ptr %9, align 1, !tbaa !7
  br label %68

68:                                               ; preds = %64
  br label %69

69:                                               ; preds = %68
  br label %70

70:                                               ; preds = %69
  store i64 -1, ptr %8, align 8, !tbaa !3
  br label %123

71:                                               ; No predecessors!
  br label %72

72:                                               ; preds = %71
  br label %73

73:                                               ; preds = %72
  br label %74

74:                                               ; preds = %73
  br label %75

75:                                               ; preds = %74, %47
  %76 = load ptr, ptr %7, align 8, !tbaa !22
  %77 = icmp eq ptr null, %76
  br i1 %77, label %78, label %97

78:                                               ; preds = %75
  br label %79

79:                                               ; preds = %78
  br label %80

80:                                               ; preds = %79
  br label %81

81:                                               ; preds = %80
  %82 = load i64, ptr @H5E_FILE_g, align 8, !tbaa !3
  %83 = load i64, ptr @H5E_CANTINIT_g, align 8, !tbaa !3
  %84 = call i32 (ptr, ptr, i32, i64, i64, ptr, ...) @H5E_printf_stack(ptr noundef @.str, ptr noundef @__func__.H5F__reopen_api_common, i32 noundef 1414, i64 noundef %82, i64 noundef %83, ptr noundef @.str.132)
  br label %85

85:                                               ; preds = %81
  br label %86

86:                                               ; preds = %85
  store i8 1, ptr %9, align 1, !tbaa !7
  %87 = load i8, ptr %9, align 1, !tbaa !7, !range !9, !noundef !10
  %88 = trunc i8 %87 to i1
  %89 = zext i1 %88 to i8
  store i8 %89, ptr %9, align 1, !tbaa !7
  br label %90

90:                                               ; preds = %86
  br label %91

91:                                               ; preds = %90
  br label %92

92:                                               ; preds = %91
  store i64 -1, ptr %8, align 8, !tbaa !3
  br label %123

93:                                               ; No predecessors!
  br label %94

94:                                               ; preds = %93
  br label %95

95:                                               ; preds = %94
  br label %96

96:                                               ; preds = %95
  br label %97

97:                                               ; preds = %96, %75
  %98 = load ptr, ptr %7, align 8, !tbaa !22
  %99 = load ptr, ptr %5, align 8, !tbaa !11
  %100 = call ptr @H5VL_obj_get_connector(ptr noundef %99)
  %101 = call i64 @H5VL_register(i32 noundef 1, ptr noundef %98, ptr noundef %100, i1 noundef zeroext true)
  store i64 %101, ptr %8, align 8, !tbaa !3
  %102 = icmp slt i64 %101, 0
  br i1 %102, label %103, label %122

103:                                              ; preds = %97
  br label %104

104:                                              ; preds = %103
  br label %105

105:                                              ; preds = %104
  br label %106

106:                                              ; preds = %105
  %107 = load i64, ptr @H5E_FILE_g, align 8, !tbaa !3
  %108 = load i64, ptr @H5E_CANTREGISTER_g, align 8, !tbaa !3
  %109 = call i32 (ptr, ptr, i32, i64, i64, ptr, ...) @H5E_printf_stack(ptr noundef @.str, ptr noundef @__func__.H5F__reopen_api_common, i32 noundef 1418, i64 noundef %107, i64 noundef %108, ptr noundef @.str.123)
  br label %110

110:                                              ; preds = %106
  br label %111

111:                                              ; preds = %110
  store i8 1, ptr %9, align 1, !tbaa !7
  %112 = load i8, ptr %9, align 1, !tbaa !7, !range !9, !noundef !10
  %113 = trunc i8 %112 to i1
  %114 = zext i1 %113 to i8
  store i8 %114, ptr %9, align 1, !tbaa !7
  br label %115

115:                                              ; preds = %111
  br label %116

116:                                              ; preds = %115
  br label %117

117:                                              ; preds = %116
  store i64 -1, ptr %8, align 8, !tbaa !3
  br label %123

118:                                              ; No predecessors!
  br label %119

119:                                              ; preds = %118
  br label %120

120:                                              ; preds = %119
  br label %121

121:                                              ; preds = %120
  br label %122

122:                                              ; preds = %121, %97
  br label %123

123:                                              ; preds = %122, %117, %92, %70, %42
  br label %124

124:                                              ; preds = %123, %16
  %125 = load i64, ptr %8, align 8, !tbaa !3
  call void @llvm.lifetime.end.p0(i64 1, ptr %9) #5
  call void @llvm.lifetime.end.p0(i64 8, ptr %8) #5
  call void @llvm.lifetime.end.p0(i64 8, ptr %7) #5
  call void @llvm.lifetime.end.p0(i64 32, ptr %6) #5
  call void @llvm.lifetime.end.p0(i64 8, ptr %5) #5
  ret i64 %125
}