; Function Attrs: nounwind uwtable
define internal fastcc range(i64 -1, -9223372036854775808) i64 @H5F__reopen_api_common(i64 noundef %0, ptr noundef %1) unnamed_addr #0 {
  %3 = alloca %struct.H5VL_file_specific_args_t, align 8
  %4 = alloca ptr, align 8
  call void @llvm.lifetime.start.p0(i64 32, ptr nonnull %3) #6
  call void @llvm.lifetime.start.p0(i64 8, ptr nonnull %4) #6
  store ptr null, ptr %4, align 8, !tbaa !36
  %5 = load i8, ptr @H5F_init_g, align 1, !tbaa !3, !range !7, !noundef !8
  %6 = trunc nuw i8 %5 to i1
  %7 = load i8, ptr @H5_libterm_g, align 1, !range !7
  %8 = trunc nuw i8 %7 to i1
  %9 = xor i1 %8, true
  %10 = select i1 %6, i1 true, i1 %9
  br i1 %10, label %11, label %42, !prof !9

11:                                               ; preds = %2
  %12 = tail call ptr @H5VL_vol_object_verify(i64 noundef %0, i32 noundef 1) #6
  %13 = icmp eq ptr %12, null
  br i1 %13, label %14, label %18

14:                                               ; preds = %11
  %15 = load i64, ptr @H5E_ARGS_g, align 8, !tbaa !11
  %16 = load i64, ptr @H5E_BADTYPE_g, align 8, !tbaa !11
  %17 = tail call i32 (ptr, ptr, i32, i64, i64, ptr, ...) @H5E_printf_stack(ptr noundef nonnull @.str, ptr noundef nonnull @__func__.H5F__reopen_api_common, i32 noundef 1402, i64 noundef %15, i64 noundef %16, ptr noundef nonnull @.str.4) #6
  br label %42

18:                                               ; preds = %11
  store i32 1, ptr %3, align 8, !tbaa !31
  %19 = getelementptr inbounds nuw i8, ptr %3, i64 8
  store ptr %4, ptr %19, align 8, !tbaa !18
  %20 = load i64, ptr @H5P_LST_DATASET_XFER_ID_g, align 8, !tbaa !11
  %21 = call i32 @H5VL_file_specific(ptr noundef nonnull %12, ptr noundef nonnull %3, i64 noundef %20, ptr noundef %1) #6
  %22 = icmp slt i32 %21, 0
  br i1 %22, label %23, label %27

23:                                               ; preds = %18
  %24 = load i64, ptr @H5E_FILE_g, align 8, !tbaa !11
  %25 = load i64, ptr @H5E_CANTINIT_g, align 8, !tbaa !11
  %26 = call i32 (ptr, ptr, i32, i64, i64, ptr, ...) @H5E_printf_stack(ptr noundef nonnull @.str, ptr noundef nonnull @__func__.H5F__reopen_api_common, i32 noundef 1410, i64 noundef %24, i64 noundef %25, ptr noundef nonnull @.str.131) #6
  br label %42

27:                                               ; preds = %18
  %28 = load ptr, ptr %4, align 8, !tbaa !36
  %29 = icmp eq ptr %28, null
  br i1 %29, label %30, label %34

30:                                               ; preds = %27
  %31 = load i64, ptr @H5E_FILE_g, align 8, !tbaa !11
  %32 = load i64, ptr @H5E_CANTINIT_g, align 8, !tbaa !11
  %33 = call i32 (ptr, ptr, i32, i64, i64, ptr, ...) @H5E_printf_stack(ptr noundef nonnull @.str, ptr noundef nonnull @__func__.H5F__reopen_api_common, i32 noundef 1414, i64 noundef %31, i64 noundef %32, ptr noundef nonnull @.str.132) #6
  br label %42

34:                                               ; preds = %27
  %35 = call ptr @H5VL_obj_get_connector(ptr noundef nonnull %12) #6
  %36 = call i64 @H5VL_register(i32 noundef 1, ptr noundef nonnull %28, ptr noundef %35, i1 noundef zeroext true) #6
  %37 = icmp slt i64 %36, 0
  br i1 %37, label %38, label %42

38:                                               ; preds = %34
  %39 = load i64, ptr @H5E_FILE_g, align 8, !tbaa !11
  %40 = load i64, ptr @H5E_CANTREGISTER_g, align 8, !tbaa !11
  %41 = call i32 (ptr, ptr, i32, i64, i64, ptr, ...) @H5E_printf_stack(ptr noundef nonnull @.str, ptr noundef nonnull @__func__.H5F__reopen_api_common, i32 noundef 1418, i64 noundef %39, i64 noundef %40, ptr noundef nonnull @.str.123) #6
  br label %42

42:                                               ; preds = %14, %23, %30, %38, %34, %2
  %.0 = phi i64 [ -1, %14 ], [ -1, %23 ], [ -1, %30 ], [ -1, %38 ], [ %36, %34 ], [ -1, %2 ]
  call void @llvm.lifetime.end.p0(i64 8, ptr nonnull %4) #6
  call void @llvm.lifetime.end.p0(i64 32, ptr nonnull %3) #6
  ret i64 %.0
}